; Function Attrs: mustprogress uwtable
define void @_ZN6colvar12calc_vel_acfERNSt7__cxx114listI11colvarvalueSaIS2_EEERKS2_(ptr nocapture noundef nonnull align 8 dereferenceable(4624) %0, ptr noundef nonnull align 8 dereferenceable(24) %1, ptr noundef nonnull align 8 dereferenceable(168) %2) local_unnamed_addr #2 align 2 personality ptr @__gxx_personality_v0 {
  %4 = alloca %"struct.std::_List_iterator.343", align 8
  %5 = alloca %"class.__gnu_cxx::__normal_iterator.129", align 8
  %6 = alloca %"struct.std::_List_iterator.343", align 8
  %7 = getelementptr inbounds i8, ptr %1, i64 16
  %8 = load i64, ptr %7, align 8
  %9 = getelementptr inbounds i8, ptr %0, i64 4088
  %10 = load i64, ptr %9, align 8
  %11 = getelementptr inbounds i8, ptr %0, i64 4096
  %12 = load i64, ptr %11, align 8
  %13 = add i64 %12, %10
  %.not = icmp ult i64 %8, %13
  br i1 %.not, label %28, label %14

14:                                               ; preds = %3
  %15 = load ptr, ptr %1, align 8
  store ptr %15, ptr %4, align 8
  %16 = getelementptr inbounds i8, ptr %0, i64 4128
  %17 = load ptr, ptr %16, align 8
  %.not8 = icmp eq i64 %12, 0
  br i1 %.not8, label %._crit_edge, label %.lr.ph

.lr.ph:                                           ; preds = %14, %.lr.ph
  %.07 = phi i64 [ %20, %.lr.ph ], [ 0, %14 ]
  %18 = phi ptr [ %19, %.lr.ph ], [ %15, %14 ]
  %19 = load ptr, ptr %18, align 8
  store ptr %19, ptr %4, align 8
  %20 = add nuw i64 %.07, 1
  %exitcond.not = icmp eq i64 %20, %12
  br i1 %exitcond.not, label %._crit_edge, label %.lr.ph, !llvm.loop !227

._crit_edge:                                      ; preds = %.lr.ph, %14
  %21 = tail call noundef double @_ZNK11colvarvalue5norm2Ev(ptr noundef nonnull align 8 dereferenceable(168) %2)
  %22 = load double, ptr %17, align 8
  %23 = fadd double %21, %22
  store double %23, ptr %17, align 8
  %24 = getelementptr inbounds i8, ptr %17, i64 8
  store ptr %24, ptr %5, align 8
  store ptr %1, ptr %6, align 8
  call void @_ZN11colvarvalue9inner_optERKS_RSt14_List_iteratorIS_ERKS3_RN9__gnu_cxx17__normal_iteratorIPdSt6vectorIdSaIdEEEE(ptr noundef nonnull align 8 dereferenceable(168) %2, ptr noundef nonnull align 8 dereferenceable(8) %4, ptr noundef nonnull align 8 dereferenceable(8) %6, ptr noundef nonnull align 8 dereferenceable(8) %5)
  %25 = getelementptr inbounds i8, ptr %0, i64 4112
  %26 = load i64, ptr %25, align 8
  %27 = add i64 %26, 1
  store i64 %27, ptr %25, align 8
  br label %28

28:                                               ; preds = %._crit_edge, %3
  ret void
}